(dp0
S'step-number'
p1
I4
sS'versions'
p2
(dp3
S'libcalico-version'
p4
S'v0.12.0'
p5
sS'version'
p6
S'v0.17.0'
p7
sS'libnetwork-version'
p8
S'v0.8.0'
p9
sS'version-no-v'
p10
S'0.17.0'
p11
sS'calico-version'
p12
S'1.3.0'
p13
ss.